target datalayout = "e-m:e-p270:32:32-p271:32:32-p272:64:64-i64:64-i128:128-f80:128-n8:16:32:64-S128"
target triple = "x86_64-pc-linux-gnu"

@window_splitter_hash = internal global ptr null, align 8

; Function Attrs: null_pointer_is_valid sspstrong uwtable
define hidden void @window_splitter_save(ptr noundef %0, ptr noundef %1) #0 {
  %3 = alloca ptr, align 8
  %4 = alloca ptr, align 8
  store ptr %0, ptr %3, align 8
  store ptr %1, ptr %4, align 8
  %5 = load ptr, ptr @window_splitter_hash, align 8
  %6 = icmp ne ptr %5, null
  br i1 %6, label %9, label %7

7:                                                ; preds = %2
  %8 = call ptr @g_hash_table_new_full(ptr noundef @g_str_hash, ptr noundef @g_str_equal, ptr noundef @g_free, ptr noundef @g_free)
  store ptr %8, ptr @window_splitter_hash, align 8
  br label %9

9:                                                ; preds = %7, %2
  %10 = load ptr, ptr @window_splitter_hash, align 8
  %11 = load ptr, ptr %3, align 8
  %12 = call noalias ptr @g_strdup(ptr noundef %11)
  %13 = load ptr, ptr %4, align 8
  %14 = call noalias ptr @g_strdup(ptr noundef %13)
  %15 = call i32 @g_hash_table_replace(ptr noundef %10, ptr noundef %12, ptr noundef %14)
  ret void
}