; Function Attrs: null_pointer_is_valid sspstrong uwtable
define hidden void @window_splitter_save(ptr noundef %0, ptr noundef %1) local_unnamed_addr #0 {
  %3 = load ptr, ptr @window_splitter_hash, align 8
  %.not = icmp eq ptr %3, null
  br i1 %.not, label %4, label %6

4:                                                ; preds = %2
  %5 = tail call ptr @g_hash_table_new_full(ptr noundef nonnull @g_str_hash, ptr noundef nonnull @g_str_equal, ptr noundef nonnull @g_free, ptr noundef nonnull @g_free)
  store ptr %5, ptr @window_splitter_hash, align 8
  br label %6

6:                                                ; preds = %4, %2
  %7 = phi ptr [ %5, %4 ], [ %3, %2 ]
  %8 = tail call noalias ptr @g_strdup(ptr noundef %0)
  %9 = tail call noalias ptr @g_strdup(ptr noundef %1)
  %10 = tail call i32 @g_hash_table_replace(ptr noundef %7, ptr noundef %8, ptr noundef %9)
  ret void
}